(dp1
S'files'
p2
(dp3
S'document___init__'
p4
(dp5
S'index'
p6
(dp7
S'html_filename'
p8
S'document___init__.html'
p9
sS'name'
p10
S'document\\__init__'
p11
sS'nums'
p12
ccopy_reg
_reconstructor
p13
(ccoverage.results
Numbers
p14
c__builtin__
object
p15
NtRp16
(dp17
S'n_files'
p18
I1
sS'n_branches'
p19
I0
sS'n_statements'
p20
I0
sS'n_excluded'
p21
I0
sS'n_partial_branches'
p22
I0
sS'n_missing'
p23
I0
sS'n_missing_branches'
p24
I0
sbssS'hash'
p25
S'\xca\xf5\x9f\x7f\x88\xdfa\x831|T\x1d\xbc}\xa5v'
p26
ssS'card___init__'
p27
(dp28
g6
(dp29
g8
S'card___init__.html'
p30
sg10
S'card\\__init__'
p31
sg12
g13
(g14
g15
NtRp32
(dp33
g18
I1
sg19
I0
sg20
I0
sg21
I0
sg22
I0
sg23
I0
sg24
I0
sbssg25
S'\xca\xf5\x9f\x7f\x88\xdfa\x831|T\x1d\xbc}\xa5v'
p34
ssS'document_models'
p35
(dp36
g6
(dp37
g8
S'document_models.html'
p38
sg10
S'document\\models'
p39
sg12
g13
(g14
g15
NtRp40
(dp41
g18
I1
sg19
I0
sg20
I12
sg21
I0
sg22
I0
sg23
I1
sg24
I0
sbssg25
S'A\xaf\xc1\x8e\x8a\xdbz\xf9m\xc6\xf0\x96"\xe7\x1f\xae'
p42
ssS'user_views'
p43
(dp44
g6
(dp45
g8
S'user_views.html'
p46
sg10
S'user\\views'
p47
sg12
g13
(g14
g15
NtRp48
(dp49
g18
I1
sg19
I0
sg20
I44
sg21
I0
sg22
I0
sg23
I16
sg24
I0
sbssg25
S"ot\xc7qH\x16*\x9d}s'\xb3\xbb\rj\xdf"
p50
ssS'jobdex___init__'
p51
(dp52
g6
(dp53
g8
S'jobdex___init__.html'
p54
sg10
S'jobdex\\__init__'
p55
sg12
g13
(g14
g15
NtRp56
(dp57
g18
I1
sg19
I0
sg20
I0
sg21
I0
sg22
I0
sg23
I0
sg24
I0
sbssg25
S'\xca\xf5\x9f\x7f\x88\xdfa\x831|T\x1d\xbc}\xa5v'
p58
ssS'document_views'
p59
(dp60
g6
(dp61
g8
S'document_views.html'
p62
sg10
S'document\\views'
p63
sg12
g13
(g14
g15
NtRp64
(dp65
g18
I1
sg19
I0
sg20
I55
sg21
I0
sg22
I0
sg23
I10
sg24
I0
sbssg25
S'R\xf1+\xad\xddA\xf2\n\x05\xe5\xf0q:\x08\xd59'
p66
ssS'card_models'
p67
(dp68
g6
(dp69
g8
S'card_models.html'
p70
sg10
S'card\\models'
p71
sg12
g13
(g14
g15
NtRp72
(dp73
g18
I1
sg19
I0
sg20
I35
sg21
I0
sg22
I0
sg23
I4
sg24
I0
sbssg25
S'\xb6\xbe\xc7N\x87z\xc2\x9d\x9bGg\xc4\x85\xa2\x8d\x15'
p74
ssS'user_tests'
p75
(dp76
g6
(dp77
g8
S'user_tests.html'
p78
sg10
S'user\\tests'
p79
sg12
g13
(g14
g15
NtRp80
(dp81
g18
I1
sg19
I0
sg20
I1
sg21
I0
sg22
I0
sg23
I0
sg24
I0
sbssg25
S'\x18\xa2\xf7\x81\x94\xb4%\xa4\xfaT\xb8\x84>\xb2\xf3b'
p82
ssS'manage'
p83
(dp84
g6
(dp85
g8
S'manage.html'
p86
sg10
g83
sg12
g13
(g14
g15
NtRp87
(dp88
g18
I1
sg19
I0
sg20
I6
sg21
I0
sg22
I0
sg23
I0
sg24
I0
sbssg25
S"\x9d\xd4i\xa3](\xaa\xac\x11\xa3\xa8\xaeR\xdbW'"
p89
ssS'card_admin'
p90
(dp91
g6
(dp92
g8
S'card_admin.html'
p93
sg10
S'card\\admin'
p94
sg12
g13
(g14
g15
NtRp95
(dp96
g18
I1
sg19
I0
sg20
I1
sg21
I0
sg22
I0
sg23
I0
sg24
I0
sbssg25
S'\xd4\xe9\x8c\x82\x9c\xa2eU\x87h\x8b\xbe!-\xe2\xdf'
p97
ssS'jobdex_urls'
p98
(dp99
g6
(dp100
g8
S'jobdex_urls.html'
p101
sg10
S'jobdex\\urls'
p102
sg12
g13
(g14
g15
NtRp103
(dp104
g18
I1
sg19
I0
sg20
I32
sg21
I0
sg22
I0
sg23
I0
sg24
I0
sbssg25
S'O\xf9\xbc\xe7\xe1\x04_8\xf8\xcd\x8c=\x9d\xb3U}'
p105
ssS'card_tests'
p106
(dp107
g6
(dp108
S'html_filename'
p109
S'card_tests.html'
p110
sS'name'
p111
S'card\\tests'
p112
sS'nums'
p113
g13
(g14
g15
NtRp114
(dp115
g18
I1
sg19
I0
sg20
I329
sg21
I0
sg22
I0
sg23
I152
sg24
I0
sbssg25
S'mz;p\xe2lW\x98)\x86\xa7\x0e\x95P\x9c\xc2'
p116
ssS'card_views'
p117
(dp118
g6
(dp119
g109
S'card_views.html'
p120
sg111
S'card\\views'
p121
sg113
g13
(g14
g15
NtRp122
(dp123
g18
I1
sg19
I0
sg20
I261
sg21
I0
sg22
I0
sg23
I212
sg24
I0
sbssg25
S'\xecI\x96/o\xa1\xbeG\x9ck\xeb\x15\xfc\xf14\xa6'
p124
ssS'user_admin'
p125
(dp126
g6
(dp127
g8
S'user_admin.html'
p128
sg10
S'user\\admin'
p129
sg12
g13
(g14
g15
NtRp130
(dp131
g18
I1
sg19
I0
sg20
I1
sg21
I0
sg22
I0
sg23
I0
sg24
I0
sbssg25
S'\xd4\xe9\x8c\x82\x9c\xa2eU\x87h\x8b\xbe!-\xe2\xdf'
p132
ssS'document_admin'
p133
(dp134
g6
(dp135
g8
S'document_admin.html'
p136
sg10
S'document\\admin'
p137
sg12
g13
(g14
g15
NtRp138
(dp139
g18
I1
sg19
I0
sg20
I1
sg21
I0
sg22
I0
sg23
I0
sg24
I0
sbssg25
S'\xd4\xe9\x8c\x82\x9c\xa2eU\x87h\x8b\xbe!-\xe2\xdf'
p140
ssS'jobdex_settings'
p141
(dp142
g6
(dp143
g8
S'jobdex_settings.html'
p144
sg10
S'jobdex\\settings'
p145
sg12
g13
(g14
g15
NtRp146
(dp147
g18
I1
sg19
I0
sg20
I25
sg21
I0
sg22
I0
sg23
I0
sg24
I0
sbssg25
S'\x03\xf1\xd2\x19\xdc\xc01s\xeb\x83\xdce\x01R\xc08'
p148
ssS'user_models'
p149
(dp150
g6
(dp151
g8
S'user_models.html'
p152
sg10
S'user\\models'
p153
sg12
g13
(g14
g15
NtRp154
(dp155
g18
I1
sg19
I0
sg20
I13
sg21
I0
sg22
I0
sg23
I1
sg24
I0
sbssg25
S'\x7f\x83\xc4\xf3nDw\x10\xc2\xcf\xcf\x0b\x11]\xc0\x1b'
p156
ssS'jobdex_wsgi'
p157
(dp158
g6
(dp159
g8
S'jobdex_wsgi.html'
p160
sg10
S'jobdex\\wsgi'
p161
sg12
g13
(g14
g15
NtRp162
(dp163
g18
I1
sg19
I0
sg20
I4
sg21
I0
sg22
I0
sg23
I4
sg24
I0
sbssg25
S'\x97\xc8\xdaf\xd3p\x95\x9cQ]\x9c\x8b-<\xb5F'
p164
ssS'user_forms'
p165
(dp166
g6
(dp167
g8
S'user_forms.html'
p168
sg10
S'user\\forms'
p169
sg12
g13
(g14
g15
NtRp170
(dp171
g18
I1
sg19
I0
sg20
I9
sg21
I0
sg22
I0
sg23
I0
sg24
I0
sbssg25
S'lE\x8f\xbc\xf2oJ\x8bsUnc\xf7D\xfa\xe4'
p172
ssS'user___init__'
p173
(dp174
g6
(dp175
g8
S'user___init__.html'
p176
sg10
S'user\\__init__'
p177
sg12
g13
(g14
g15
NtRp178
(dp179
g18
I1
sg19
I0
sg20
I0
sg21
I0
sg22
I0
sg23
I0
sg24
I0
sbssg25
S'\xca\xf5\x9f\x7f\x88\xdfa\x831|T\x1d\xbc}\xa5v'
p180
ssS'document_tests'
p181
(dp182
g6
(dp183
g8
S'document_tests.html'
p184
sg10
S'document\\tests'
p185
sg12
g13
(g14
g15
NtRp186
(dp187
g18
I1
sg19
I0
sg20
I80
sg21
I0
sg22
I0
sg23
I9
sg24
I0
sbssg25
S'\x9ej\x0e\xca\xdaX\xec\x16\xbb\x93\xfa\x0b\xb6:%F'
p188
sssS'version'
p189
S'3.7.1'
p190
sS'settings'
p191
S'\x98\xa8x\xfe"r\xb5K\x98\xb1N\\\x99\x9e\xf3\xe5'
p192
sS'format'
p193
I1
s.